; Function Attrs: mustprogress uwtable
define hidden void @_Z10tst_paramsR11cmd_context(ptr noundef nonnull align 8 dereferenceable(872) %ctx) local_unnamed_addr #3 personality ptr @__gxx_personality_v0 {
entry:
  %p1 = alloca %class.params_ref, align 8
  %p2 = alloca %class.params_ref, align 8
  store ptr null, ptr %p1, align 8
  store ptr null, ptr %p2, align 8
  invoke void @_ZN10params_ref8set_uintEPKcj(ptr noundef nonnull align 8 dereferenceable(8) %p1, ptr noundef nonnull @.str, i32 noundef 100)
          to label %invoke.cont2 unwind label %lpad1

invoke.cont2:                                     ; preds = %entry
  invoke void @_ZN10params_ref4copyERKS_(ptr noundef nonnull align 8 dereferenceable(8) %p2, ptr noundef nonnull align 8 dereferenceable(8) %p1)
          to label %invoke.cont3 unwind label %lpad1

invoke.cont3:                                     ; preds = %invoke.cont2
  invoke void @_ZN10params_ref8set_uintEPKcj(ptr noundef nonnull align 8 dereferenceable(8) %p2, ptr noundef nonnull @.str, i32 noundef 200)
          to label %invoke.cont4 unwind label %lpad1

invoke.cont4:                                     ; preds = %invoke.cont3
  invoke void @_ZN10params_ref4copyERKS_(ptr noundef nonnull align 8 dereferenceable(8) %p2, ptr noundef nonnull align 8 dereferenceable(8) %p1)
          to label %invoke.cont5 unwind label %lpad1

invoke.cont5:                                     ; preds = %invoke.cont4
  %vtable = load ptr, ptr %ctx, align 8
  %vfn = getelementptr inbounds i8, ptr %vtable, i64 40
  %0 = load ptr, ptr %vfn, align 8
  %call = invoke noundef nonnull align 8 dereferenceable(8) ptr %0(ptr noundef nonnull align 8 dereferenceable(872) %ctx)
          to label %invoke.cont6 unwind label %lpad1

invoke.cont6:                                     ; preds = %invoke.cont5
  %call8 = invoke noundef nonnull align 8 dereferenceable(8) ptr @_ZStlsISt11char_traitsIcEERSt13basic_ostreamIcT_ES5_PKc(ptr noundef nonnull align 8 dereferenceable(8) %call, ptr noundef nonnull @.str.1)
          to label %invoke.cont7 unwind label %lpad1

invoke.cont7:                                     ; preds = %invoke.cont6
  %call10 = invoke noundef nonnull align 8 dereferenceable(8) ptr @_ZNSolsEPFRSoS_E(ptr noundef nonnull align 8 dereferenceable(8) %call8, ptr noundef nonnull @_ZSt4endlIcSt11char_traitsIcEERSt13basic_ostreamIT_T0_ES6_)
          to label %invoke.cont9 unwind label %lpad1

invoke.cont9:                                     ; preds = %invoke.cont7
  call void @_ZN10params_refD1Ev(ptr noundef nonnull align 8 dereferenceable(8) %p2) #15
  call void @_ZN10params_refD1Ev(ptr noundef nonnull align 8 dereferenceable(8) %p1) #15
  ret void

lpad1:                                            ; preds = %invoke.cont4, %invoke.cont2, %invoke.cont7, %invoke.cont6, %invoke.cont5, %invoke.cont3, %entry
  %1 = landingpad { ptr, i32 }
          cleanup
  call void @_ZN10params_refD1Ev(ptr noundef nonnull align 8 dereferenceable(8) %p2) #15
  call void @_ZN10params_refD1Ev(ptr noundef nonnull align 8 dereferenceable(8) %p1) #15
  resume { ptr, i32 } %1
}